target datalayout = "e-m:e-p270:32:32-p271:32:32-p272:64:64-i64:64-i128:128-f80:128-n8:16:32:64-S128"
target triple = "x86_64-pc-linux-gnu"

%struct.RelationData = type { %struct.RelFileLocator, ptr, i32, i32, i8, i8, i8, i8, i8, i32, i32, i32, i32, ptr, ptr, i32, %struct.LockInfoData, ptr, ptr, ptr, ptr, ptr, i8, ptr, ptr, ptr, ptr, ptr, ptr, i32, ptr, i8, ptr, ptr, i32, i8, i32, ptr, i8, ptr, ptr, ptr, ptr, ptr, ptr, ptr, i32, ptr, ptr, ptr, ptr, ptr, ptr, ptr, ptr, ptr, ptr, ptr, ptr, ptr, ptr, ptr, ptr, ptr, ptr, ptr, i32, i8, ptr }
%struct.RelFileLocator = type { i32, i32, i32 }
%struct.LockInfoData = type { %struct.LockRelId }
%struct.LockRelId = type { i32, i32 }
%struct.FormData_pg_class = type { i32, %struct.nameData, i32, i32, i32, i32, i32, i32, i32, i32, float, i32, i32, i8, i8, i8, i8, i16, i16, i8, i8, i8, i8, i8, i8, i8, i8, i32, i32, i32 }
%struct.nameData = type { [64 x i8] }
%struct.ParseState = type { ptr, ptr, i32, i32, ptr, ptr, ptr, ptr, ptr, ptr, i8, ptr, ptr, ptr, ptr, ptr, ptr, i8, ptr, i32, i32, ptr, ptr, i8, i8, ptr, i8, i8, i8, i8, i8, ptr, ptr, ptr, ptr, ptr, ptr }
%struct.ForEachState = type { ptr, i32 }
%struct.List = type { i32, i32, i32, ptr, [0 x %union.ListCell] }
%union.ListCell = type { ptr }
%struct.PublicationRelInfo = type { ptr, ptr, ptr }

@.str.1 = private unnamed_addr constant [18 x i8] c"publicationcmds.c\00", align 1
@.str.18 = private unnamed_addr constant [27 x i8] c"publish_via_partition_root\00", align 1
@.str.26 = private unnamed_addr constant [54 x i8] c"cannot use publication WHERE clause for relation \22%s\22\00", align 1
@.str.27 = private unnamed_addr constant [70 x i8] c"WHERE clause cannot be used for a partitioned table when %s is false.\00", align 1
@__func__.TransformPubWhereClauses = private unnamed_addr constant [25 x i8] c"TransformPubWhereClauses\00", align 1
@.str.28 = private unnamed_addr constant [18 x i8] c"PUBLICATION WHERE\00", align 1

; Function Attrs: nounwind uwtable
define internal zeroext i1 @check_simple_rowfilter_expr(ptr noundef %0, ptr noundef %1) #0 {
  %3 = alloca ptr, align 8
  %4 = alloca ptr, align 8
  store ptr %0, ptr %3, align 8
  store ptr %1, ptr %4, align 8
  %5 = load ptr, ptr %3, align 8
  %6 = load ptr, ptr %4, align 8
  %7 = call zeroext i1 @check_simple_rowfilter_expr_walker(ptr noundef %5, ptr noundef %6)
  ret i1 %7
}

; Function Attrs: nounwind uwtable
define internal void @TransformPubWhereClauses(ptr noundef %0, ptr noundef %1, i1 noundef zeroext %2) #0 {
  %4 = alloca ptr, align 8
  %5 = alloca ptr, align 8
  %6 = alloca i8, align 1
  %7 = alloca ptr, align 8
  %8 = alloca %struct.ForEachState, align 8
  %9 = alloca i32, align 4
  %10 = alloca ptr, align 8
  %11 = alloca ptr, align 8
  %12 = alloca ptr, align 8
  %13 = alloca ptr, align 8
  store ptr %0, ptr %4, align 8
  store ptr %1, ptr %5, align 8
  %14 = zext i1 %2 to i8
  store i8 %14, ptr %6, align 1
  call void @llvm.lifetime.start.p0(i64 8, ptr %7) #10
  call void @llvm.lifetime.start.p0(i64 16, ptr %8) #10
  %15 = getelementptr inbounds nuw %struct.ForEachState, ptr %8, i32 0, i32 0
  %16 = load ptr, ptr %4, align 8
  store ptr %16, ptr %15, align 8
  %17 = getelementptr inbounds nuw %struct.ForEachState, ptr %8, i32 0, i32 1
  store i32 0, ptr %17, align 8
  %18 = getelementptr i8, ptr %8, i64 12
  call void @llvm.memset.p0.i64(ptr align 4 %18, i8 0, i64 4, i1 false)
  br label %19

19:                                               ; preds = %122, %3
  %20 = getelementptr inbounds nuw %struct.ForEachState, ptr %8, i32 0, i32 0
  %21 = load ptr, ptr %20, align 8
  %22 = icmp ne ptr %21, null
  br i1 %22, label %23, label %40

23:                                               ; preds = %19
  %24 = getelementptr inbounds nuw %struct.ForEachState, ptr %8, i32 0, i32 1
  %25 = load i32, ptr %24, align 8
  %26 = getelementptr inbounds nuw %struct.ForEachState, ptr %8, i32 0, i32 0
  %27 = load ptr, ptr %26, align 8
  %28 = getelementptr inbounds nuw %struct.List, ptr %27, i32 0, i32 1
  %29 = load i32, ptr %28, align 4
  %30 = icmp slt i32 %25, %29
  br i1 %30, label %31, label %40

31:                                               ; preds = %23
  %32 = getelementptr inbounds nuw %struct.ForEachState, ptr %8, i32 0, i32 0
  %33 = load ptr, ptr %32, align 8
  %34 = getelementptr inbounds nuw %struct.List, ptr %33, i32 0, i32 3
  %35 = load ptr, ptr %34, align 8
  %36 = getelementptr inbounds nuw %struct.ForEachState, ptr %8, i32 0, i32 1
  %37 = load i32, ptr %36, align 8
  %38 = sext i32 %37 to i64
  %39 = getelementptr inbounds %union.ListCell, ptr %35, i64 %38
  store ptr %39, ptr %7, align 8
  br label %41

40:                                               ; preds = %23, %19
  store ptr null, ptr %7, align 8
  br label %41

41:                                               ; preds = %40, %31
  %42 = phi i32 [ 1, %31 ], [ 0, %40 ]
  %43 = icmp ne i32 %42, 0
  br i1 %43, label %45, label %44

44:                                               ; preds = %41
  store i32 2, ptr %9, align 4
  call void @llvm.lifetime.end.p0(i64 16, ptr %8) #10
  br label %126

45:                                               ; preds = %41
  call void @llvm.lifetime.start.p0(i64 8, ptr %10) #10
  call void @llvm.lifetime.start.p0(i64 8, ptr %11) #10
  store ptr null, ptr %11, align 8
  call void @llvm.lifetime.start.p0(i64 8, ptr %12) #10
  call void @llvm.lifetime.start.p0(i64 8, ptr %13) #10
  %46 = load ptr, ptr %7, align 8
  %47 = load ptr, ptr %46, align 8
  store ptr %47, ptr %13, align 8
  %48 = load ptr, ptr %13, align 8
  %49 = getelementptr inbounds nuw %struct.PublicationRelInfo, ptr %48, i32 0, i32 1
  %50 = load ptr, ptr %49, align 8
  %51 = icmp eq ptr %50, null
  br i1 %51, label %52, label %53

52:                                               ; preds = %45
  store i32 4, ptr %9, align 4
  br label %119

53:                                               ; preds = %45
  %54 = load i8, ptr %6, align 1, !range !4, !noundef !5
  %55 = trunc i8 %54 to i1
  br i1 %55, label %87, label %56

56:                                               ; preds = %53
  %57 = load ptr, ptr %13, align 8
  %58 = getelementptr inbounds nuw %struct.PublicationRelInfo, ptr %57, i32 0, i32 0
  %59 = load ptr, ptr %58, align 8
  %60 = getelementptr inbounds nuw %struct.RelationData, ptr %59, i32 0, i32 13
  %61 = load ptr, ptr %60, align 8
  %62 = getelementptr inbounds nuw %struct.FormData_pg_class, ptr %61, i32 0, i32 16
  %63 = load i8, ptr %62, align 1
  %64 = sext i8 %63 to i32
  %65 = icmp eq i32 %64, 112
  br i1 %65, label %66, label %87

66:                                               ; preds = %56
  br label %67

67:                                               ; preds = %66
  br i1 true, label %68, label %70

68:                                               ; preds = %67
  %69 = call zeroext i1 @errstart_cold(i32 noundef 21, ptr noundef null) #11
  br i1 %69, label %72, label %84

70:                                               ; preds = %67
  %71 = call zeroext i1 @errstart(i32 noundef 21, ptr noundef null)
  br i1 %71, label %72, label %84

72:                                               ; preds = %70, %68
  %73 = call i32 @errcode(i32 noundef 50856066)
  %74 = load ptr, ptr %13, align 8
  %75 = getelementptr inbounds nuw %struct.PublicationRelInfo, ptr %74, i32 0, i32 0
  %76 = load ptr, ptr %75, align 8
  %77 = getelementptr inbounds nuw %struct.RelationData, ptr %76, i32 0, i32 13
  %78 = load ptr, ptr %77, align 8
  %79 = getelementptr inbounds nuw %struct.FormData_pg_class, ptr %78, i32 0, i32 1
  %80 = getelementptr inbounds nuw %struct.nameData, ptr %79, i32 0, i32 0
  %81 = getelementptr inbounds [64 x i8], ptr %80, i64 0, i64 0
  %82 = call i32 (ptr, ...) @errmsg(ptr noundef @.str.26, ptr noundef %81)
  %83 = call i32 (ptr, ...) @errdetail(ptr noundef @.str.27, ptr noundef @.str.18)
  call void @errfinish(ptr noundef @.str.1, i32 noundef 690, ptr noundef @__func__.TransformPubWhereClauses)
  br label %84

84:                                               ; preds = %72, %70, %68
  unreachable

85:                                               ; No predecessors!
  br label %86

86:                                               ; preds = %85
  br label %87

87:                                               ; preds = %86, %56, %53
  %88 = call ptr @make_parsestate(ptr noundef null)
  store ptr %88, ptr %12, align 8
  %89 = load ptr, ptr %5, align 8
  %90 = load ptr, ptr %12, align 8
  %91 = getelementptr inbounds nuw %struct.ParseState, ptr %90, i32 0, i32 1
  store ptr %89, ptr %91, align 8
  %92 = load ptr, ptr %12, align 8
  %93 = load ptr, ptr %13, align 8
  %94 = getelementptr inbounds nuw %struct.PublicationRelInfo, ptr %93, i32 0, i32 0
  %95 = load ptr, ptr %94, align 8
  %96 = call ptr @addRangeTableEntryForRelation(ptr noundef %92, ptr noundef %95, i32 noundef 1, ptr noundef null, i1 noundef zeroext false, i1 noundef zeroext false)
  store ptr %96, ptr %10, align 8
  %97 = load ptr, ptr %12, align 8
  %98 = load ptr, ptr %10, align 8
  call void @addNSItemToQuery(ptr noundef %97, ptr noundef %98, i1 noundef zeroext false, i1 noundef zeroext true, i1 noundef zeroext true)
  %99 = load ptr, ptr %12, align 8
  %100 = load ptr, ptr %13, align 8
  %101 = getelementptr inbounds nuw %struct.PublicationRelInfo, ptr %100, i32 0, i32 1
  %102 = load ptr, ptr %101, align 8
  %103 = call ptr @copyObjectImpl(ptr noundef %102)
  %104 = call ptr @transformWhereClause(ptr noundef %99, ptr noundef %103, i32 noundef 6, ptr noundef @.str.28)
  store ptr %104, ptr %11, align 8
  %105 = load ptr, ptr %12, align 8
  %106 = load ptr, ptr %11, align 8
  call void @assign_expr_collations(ptr noundef %105, ptr noundef %106)
  %107 = load ptr, ptr %11, align 8
  %108 = load ptr, ptr %13, align 8
  %109 = getelementptr inbounds nuw %struct.PublicationRelInfo, ptr %108, i32 0, i32 0
  %110 = load ptr, ptr %109, align 8
  %111 = call ptr @expand_generated_columns_in_expr(ptr noundef %107, ptr noundef %110, i32 noundef 1)
  store ptr %111, ptr %11, align 8
  %112 = load ptr, ptr %11, align 8
  %113 = load ptr, ptr %12, align 8
  %114 = call zeroext i1 @check_simple_rowfilter_expr(ptr noundef %112, ptr noundef %113)
  %115 = load ptr, ptr %12, align 8
  call void @free_parsestate(ptr noundef %115)
  %116 = load ptr, ptr %11, align 8
  %117 = load ptr, ptr %13, align 8
  %118 = getelementptr inbounds nuw %struct.PublicationRelInfo, ptr %117, i32 0, i32 1
  store ptr %116, ptr %118, align 8
  store i32 0, ptr %9, align 4
  br label %119

119:                                              ; preds = %87, %52
  call void @llvm.lifetime.end.p0(i64 8, ptr %13) #10
  call void @llvm.lifetime.end.p0(i64 8, ptr %12) #10
  call void @llvm.lifetime.end.p0(i64 8, ptr %11) #10
  call void @llvm.lifetime.end.p0(i64 8, ptr %10) #10
  %120 = load i32, ptr %9, align 4
  switch i32 %120, label %127 [
    i32 0, label %121
    i32 4, label %122
  ]

121:                                              ; preds = %119
  br label %122

122:                                              ; preds = %121, %119
  %123 = getelementptr inbounds nuw %struct.ForEachState, ptr %8, i32 0, i32 1
  %124 = load i32, ptr %123, align 8
  %125 = add i32 %124, 1
  store i32 %125, ptr %123, align 8
  br label %19, !llvm.loop !13

126:                                              ; preds = %44
  call void @llvm.lifetime.end.p0(i64 8, ptr %7) #10
  ret void

127:                                              ; preds = %119
  unreachable
}