; Function Attrs: nounwind uwtable
define internal fastcc void @TransformPubWhereClauses(ptr noundef readonly captures(address_is_null) %0, ptr noundef %1, i1 noundef zeroext %2) unnamed_addr #0 {
  %.not = icmp eq ptr %0, null
  br i1 %.not, label %._crit_edge, label %.lr.ph

.lr.ph:                                           ; preds = %3
  %4 = getelementptr inbounds nuw i8, ptr %0, i64 4
  %5 = getelementptr inbounds nuw i8, ptr %0, i64 16
  %6 = load i32, ptr %4, align 4
  %7 = icmp sgt i32 %6, 0
  br i1 %7, label %.lr.ph34, label %._crit_edge

._crit_edge:                                      ; preds = %42, %.lr.ph, %3
  ret void

.lr.ph34:                                         ; preds = %.lr.ph, %42
  %indvars.iv33 = phi i64 [ %indvars.iv.next, %42 ], [ 0, %.lr.ph ]
  %8 = load ptr, ptr %5, align 8
  %9 = getelementptr inbounds nuw %union.ListCell, ptr %8, i64 %indvars.iv33
  %10 = load ptr, ptr %9, align 8
  %11 = getelementptr inbounds nuw i8, ptr %10, i64 8
  %12 = load ptr, ptr %11, align 8
  %13 = icmp eq ptr %12, null
  br i1 %13, label %42, label %14

14:                                               ; preds = %.lr.ph34
  br i1 %2, label %31, label %15

15:                                               ; preds = %14
  %16 = load ptr, ptr %10, align 8
  %17 = getelementptr inbounds nuw i8, ptr %16, i64 56
  %18 = load ptr, ptr %17, align 8
  %19 = getelementptr inbounds nuw i8, ptr %18, i64 115
  %20 = load i8, ptr %19, align 1
  %21 = icmp eq i8 %20, 112
  br i1 %21, label %22, label %31

22:                                               ; preds = %15
  %23 = tail call zeroext i1 @errstart_cold(i32 noundef 21, ptr noundef null) #9
  tail call void @llvm.assume(i1 %23)
  %24 = tail call i32 @errcode(i32 noundef 50856066) #8
  %25 = load ptr, ptr %10, align 8
  %26 = getelementptr inbounds nuw i8, ptr %25, i64 56
  %27 = load ptr, ptr %26, align 8
  %28 = getelementptr inbounds nuw i8, ptr %27, i64 4
  %29 = tail call i32 (ptr, ...) @errmsg(ptr noundef nonnull @.str.26, ptr noundef nonnull %28) #8
  %30 = tail call i32 (ptr, ...) @errdetail(ptr noundef nonnull @.str.27, ptr noundef nonnull @.str.18) #8
  tail call void @errfinish(ptr noundef nonnull @.str.1, i32 noundef 690, ptr noundef nonnull @__func__.TransformPubWhereClauses) #8
  unreachable

31:                                               ; preds = %15, %14
  %32 = tail call ptr @make_parsestate(ptr noundef null) #8
  %33 = getelementptr inbounds nuw i8, ptr %32, i64 8
  store ptr %1, ptr %33, align 8
  %34 = load ptr, ptr %10, align 8
  %35 = tail call ptr @addRangeTableEntryForRelation(ptr noundef %32, ptr noundef %34, i32 noundef 1, ptr noundef null, i1 noundef zeroext false, i1 noundef zeroext false) #8
  tail call void @addNSItemToQuery(ptr noundef %32, ptr noundef %35, i1 noundef zeroext false, i1 noundef zeroext true, i1 noundef zeroext true) #8
  %36 = load ptr, ptr %11, align 8
  %37 = tail call ptr @copyObjectImpl(ptr noundef %36) #8
  %38 = tail call ptr @transformWhereClause(ptr noundef %32, ptr noundef %37, i32 noundef 6, ptr noundef nonnull @.str.28) #8
  tail call void @assign_expr_collations(ptr noundef %32, ptr noundef %38) #8
  %39 = load ptr, ptr %10, align 8
  %40 = tail call ptr @expand_generated_columns_in_expr(ptr noundef %38, ptr noundef %39, i32 noundef 1) #8
  %41 = tail call zeroext i1 @check_simple_rowfilter_expr_walker(ptr noundef %40, ptr noundef %32)
  tail call void @free_parsestate(ptr noundef %32) #8
  store ptr %40, ptr %11, align 8
  br label %42

42:                                               ; preds = %.lr.ph34, %31
  %indvars.iv.next = add nuw nsw i64 %indvars.iv33, 1
  %43 = load i32, ptr %4, align 4
  %44 = sext i32 %43 to i64
  %45 = icmp slt i64 %indvars.iv.next, %44
  br i1 %45, label %.lr.ph34, label %._crit_edge
}